; Function Attrs: nounwind uwtable
define internal range(i32 0, 2) i32 @PpmdRAR_RangeDec_Init(ptr noundef captures(none) initializes((24, 28), (32, 40)) %0) #4 {
  %2 = getelementptr inbounds nuw i8, ptr %0, i64 36
  store i32 0, ptr %2, align 4, !tbaa !35
  %3 = getelementptr inbounds nuw i8, ptr %0, i64 32
  store i32 0, ptr %3, align 8, !tbaa !36
  %4 = getelementptr inbounds nuw i8, ptr %0, i64 24
  store i32 -1, ptr %4, align 8, !tbaa !37
  %5 = getelementptr inbounds nuw i8, ptr %0, i64 28
  %6 = getelementptr inbounds nuw i8, ptr %0, i64 40
  %.pre.i = load i32, ptr %5, align 4, !tbaa !38
  br label %7

7:                                                ; preds = %7, %1
  %8 = phi i32 [ %.pre.i, %1 ], [ %15, %7 ]
  %.09.i = phi i32 [ 0, %1 ], [ %16, %7 ]
  %9 = shl i32 %8, 8
  %10 = load ptr, ptr %6, align 8, !tbaa !31
  %11 = getelementptr inbounds nuw i8, ptr %10, i64 8
  %12 = load ptr, ptr %11, align 8, !tbaa !32
  %13 = tail call zeroext i8 %12(ptr noundef %10) #13
  %14 = zext i8 %13 to i32
  %15 = or disjoint i32 %9, %14
  store i32 %15, ptr %5, align 4, !tbaa !38
  %16 = add nuw nsw i32 %.09.i, 1
  %exitcond.not.i = icmp eq i32 %16, 4
  br i1 %exitcond.not.i, label %Ppmd_RangeDec_Init.exit, label %7, !llvm.loop !39

Ppmd_RangeDec_Init.exit:                          ; preds = %7
  %.not2 = icmp eq i32 %15, -1
  br i1 %.not2, label %18, label %17

17:                                               ; preds = %Ppmd_RangeDec_Init.exit
  store i32 32768, ptr %2, align 4, !tbaa !35
  br label %18

18:                                               ; preds = %Ppmd_RangeDec_Init.exit, %17
  %.0 = phi i32 [ 1, %17 ], [ 0, %Ppmd_RangeDec_Init.exit ]
  ret i32 %.0
}